; ModuleID = 'source-C-CXX/33/3074.c'
source_filename = "source-C-CXX/33/3074.c"
target datalayout = "e-m:e-p270:32:32-p271:32:32-p272:64:64-i64:64-f80:128-n8:16:32:64-S128"
target triple = "x86_64-pc-linux-gnu"

@.str = private unnamed_addr constant [3 x i8] c"%d\00", align 1
@.str.1 = private unnamed_addr constant [4 x i8] c"End\00", align 1
@.str.2 = private unnamed_addr constant [9 x i8] c"%d/2=%d\0A\00", align 1
@.str.3 = private unnamed_addr constant [11 x i8] c"%d*3+1=%d\0A\00", align 1

; Function Attrs: nofree nounwind sspstrong uwtable
define dso_local i32 @main() local_unnamed_addr #0 {
  %1 = alloca i32, align 4
  %2 = bitcast i32* %1 to i8*
  call void @llvm.lifetime.start.p0i8(i64 4, i8* nonnull %2) #3
  %3 = call i32 (i8*, ...) @__isoc99_scanf(i8* getelementptr inbounds ([3 x i8], [3 x i8]* @.str, i64 0, i64 0), i32* nonnull %1)
  %4 = load i32, i32* %1, align 4, !tbaa !5
  %5 = icmp eq i32 %4, 1
  br i1 %5, label %31, label %9

6:                                                ; preds = %22, %13
  %7 = phi i32 [ 1, %13 ], [ %25, %22 ]
  %8 = icmp eq i32 %7, 1
  br i1 %8, label %31, label %9, !llvm.loop !9

9:                                                ; preds = %0, %6
  %10 = phi i32 [ %7, %6 ], [ %4, %0 ]
  %11 = and i32 %10, 1
  %12 = icmp eq i32 %11, 0
  br i1 %12, label %16, label %13

13:                                               ; preds = %16, %9
  %14 = phi i32 [ %10, %9 ], [ %18, %16 ]
  %15 = icmp eq i32 %14, 1
  br i1 %15, label %6, label %22

16:                                               ; preds = %9, %16
  %17 = phi i32 [ %18, %16 ], [ %10, %9 ]
  %18 = sdiv i32 %17, 2
  %19 = call i32 (i8*, ...) @printf(i8* nonnull dereferenceable(1) getelementptr inbounds ([9 x i8], [9 x i8]* @.str.2, i64 0, i64 0), i32 %17, i32 %18)
  store i32 %18, i32* %1, align 4, !tbaa !5
  %20 = and i32 %18, 1
  %21 = icmp eq i32 %20, 0
  br i1 %21, label %16, label %13, !llvm.loop !11

22:                                               ; preds = %13, %22
  %23 = phi i32 [ %25, %22 ], [ %14, %13 ]
  %24 = mul nsw i32 %23, 3
  %25 = add nsw i32 %24, 1
  %26 = call i32 (i8*, ...) @printf(i8* nonnull dereferenceable(1) getelementptr inbounds ([11 x i8], [11 x i8]* @.str.3, i64 0, i64 0), i32 %23, i32 %25)
  store i32 %25, i32* %1, align 4, !tbaa !5
  %27 = and i32 %25, 1
  %28 = icmp ne i32 %27, 0
  %29 = icmp ne i32 %23, 0
  %30 = and i1 %29, %28
  br i1 %30, label %22, label %6, !llvm.loop !12

31:                                               ; preds = %6, %0
  %32 = call i32 (i8*, ...) @printf(i8* nonnull dereferenceable(1) getelementptr inbounds ([4 x i8], [4 x i8]* @.str.1, i64 0, i64 0))
  call void @llvm.lifetime.end.p0i8(i64 4, i8* nonnull %2) #3
  ret i32 0
}

; Function Attrs: argmemonly mustprogress nofree nosync nounwind willreturn
declare void @llvm.lifetime.start.p0i8(i64 immarg, i8* nocapture) #1

; Function Attrs: nofree nounwind
declare noundef i32 @__isoc99_scanf(i8* nocapture noundef readonly, ...) local_unnamed_addr #2

; Function Attrs: nofree nounwind
declare noundef i32 @printf(i8* nocapture noundef readonly, ...) local_unnamed_addr #2

; Function Attrs: argmemonly mustprogress nofree nosync nounwind willreturn
declare void @llvm.lifetime.end.p0i8(i64 immarg, i8* nocapture) #1


!llvm.module.flags = !{!0, !1, !2, !3}
!llvm.ident = !{!4}

!0 = !{i32 1, !"wchar_size", i32 4}
!1 = !{i32 7, !"PIC Level", i32 2}
!2 = !{i32 7, !"PIE Level", i32 2}
!3 = !{i32 7, !"uwtable", i32 1}
!4 = !{!"clang version 13.0.0"}
!5 = !{!6, !6, i64 0}
!6 = !{!"int", !7, i64 0}
!7 = !{!"omnipotent char", !8, i64 0}
!8 = !{!"Simple C/C++ TBAA"}
!9 = distinct !{!9, !10}
!10 = !{!"llvm.loop.mustprogress"}
!11 = distinct !{!11, !10}
!12 = distinct !{!12, !10}
